; Function Attrs: nounwind uwtable
define internal fastcc i32 @apply_case_fold1(i32 noundef %0, i32 noundef range(i32 0, 4216) %1, i32 noundef range(i32 4215, 4219) %2, ptr noundef readonly captures(none) %3, ptr noundef %4) unnamed_addr #0 {
  %6 = alloca i32, align 4
  %7 = alloca i32, align 4
  %8 = alloca i32, align 4
  %9 = icmp samesign ult i32 %1, %2
  br i1 %9, label %.lr.ph82, label %.loopexit72

.lr.ph82:                                         ; preds = %5
  %10 = and i32 %0, 1
  %11 = icmp eq i32 %10, 0
  br i1 %11, label %.lr.ph82.split.us.split, label %.lr.ph82.split

.lr.ph82.split.us.split:                          ; preds = %.lr.ph82, %._crit_edge.split.us.us
  %.04980.us = phi i32 [ %22, %._crit_edge.split.us.us ], [ %1, %.lr.ph82 ]
  call void @llvm.lifetime.start.p0(i64 4, ptr nonnull %6) #10
  %12 = sext i32 %.04980.us to i64
  %13 = getelementptr inbounds i32, ptr @OnigUnicodeFolds1, i64 %12
  %14 = load i32, ptr %13, align 4, !tbaa !17
  store i32 %14, ptr %6, align 4, !tbaa !17
  %15 = add nsw i32 %.04980.us, 1
  %16 = sext i32 %15 to i64
  %17 = getelementptr inbounds [4218 x i32], ptr @OnigUnicodeFolds1, i64 0, i64 %16
  %18 = load i32, ptr %17, align 4, !tbaa !17
  %19 = icmp sgt i32 %18, 0
  br i1 %19, label %.lr.ph77.us, label %._crit_edge.split.us.us

._crit_edge.split.us.us.loopexit:                 ; preds = %.loopexit.us.us
  %.pre107 = load i32, ptr %17, align 4, !tbaa !17
  br label %._crit_edge.split.us.us

._crit_edge.split.us.us:                          ; preds = %._crit_edge.split.us.us.loopexit, %.lr.ph82.split.us.split
  %20 = phi i32 [ %.pre107, %._crit_edge.split.us.us.loopexit ], [ %18, %.lr.ph82.split.us.split ]
  %21 = add nsw i32 %.04980.us, 2
  %22 = add i32 %21, %20
  call void @llvm.lifetime.end.p0(i64 4, ptr nonnull %6) #10
  %23 = icmp slt i32 %22, %2
  br i1 %23, label %.lr.ph82.split.us.split, label %.loopexit72

.lr.ph77.us:                                      ; preds = %.lr.ph82.split.us.split
  %24 = getelementptr inbounds nuw i8, ptr %13, i64 8
  %wide.trip.count105 = zext nneg i32 %18 to i64
  br label %25

25:                                               ; preds = %.loopexit.us.us, %.lr.ph77.us
  %indvars.iv102 = phi i64 [ %indvars.iv.next103, %.loopexit.us.us ], [ 0, %.lr.ph77.us ]
  call void @llvm.lifetime.start.p0(i64 4, ptr nonnull %7) #10
  %26 = getelementptr inbounds nuw i32, ptr %24, i64 %indvars.iv102
  %27 = load i32, ptr %26, align 4, !tbaa !17
  store i32 %27, ptr %7, align 4, !tbaa !17
  %28 = load i32, ptr %6, align 4, !tbaa !17
  %29 = call i32 %3(i32 noundef %28, ptr noundef nonnull %7, i32 noundef 1, ptr noundef %4) #10
  %.not.us.us = icmp eq i32 %29, 0
  br i1 %.not.us.us, label %30, label %.thread64

30:                                               ; preds = %25
  %31 = load i32, ptr %7, align 4, !tbaa !17
  %32 = call i32 %3(i32 noundef %31, ptr noundef nonnull %6, i32 noundef 1, ptr noundef %4) #10
  %.not55.us.us = icmp eq i32 %32, 0
  br i1 %.not55.us.us, label %.preheader.us.us, label %.thread64

.preheader.us.us:                                 ; preds = %30
  %.not86 = icmp eq i64 %indvars.iv102, 0
  br i1 %.not86, label %.loopexit.us.us, label %.lr.ph.us.us

.loopexit.us.us:                                  ; preds = %select.unfold.us.us.us, %.preheader.us.us
  call void @llvm.lifetime.end.p0(i64 4, ptr nonnull %7) #10
  %indvars.iv.next103 = add nuw nsw i64 %indvars.iv102, 1
  %exitcond106.not = icmp eq i64 %indvars.iv.next103, %wide.trip.count105
  br i1 %exitcond106.not, label %._crit_edge.split.us.us.loopexit, label %25, !llvm.loop !26

.lr.ph.us.us:                                     ; preds = %.preheader.us.us, %select.unfold.us.us.us
  %indvars.iv98 = phi i64 [ %indvars.iv.next99, %select.unfold.us.us.us ], [ 0, %.preheader.us.us ]
  call void @llvm.lifetime.start.p0(i64 4, ptr nonnull %8) #10
  %33 = getelementptr inbounds nuw i32, ptr %24, i64 %indvars.iv98
  %34 = load i32, ptr %33, align 4, !tbaa !17
  store i32 %34, ptr %8, align 4, !tbaa !17
  %35 = load i32, ptr %7, align 4, !tbaa !17
  %36 = call i32 %3(i32 noundef %35, ptr noundef nonnull %8, i32 noundef 1, ptr noundef %4) #10
  %.not56.us.us.us = icmp eq i32 %36, 0
  br i1 %.not56.us.us.us, label %37, label %.thread

37:                                               ; preds = %.lr.ph.us.us
  %38 = load i32, ptr %8, align 4, !tbaa !17
  %39 = call i32 %3(i32 noundef %38, ptr noundef nonnull %7, i32 noundef 1, ptr noundef %4) #10
  %.not57.us.us.us = icmp eq i32 %39, 0
  br i1 %.not57.us.us.us, label %select.unfold.us.us.us, label %.thread

select.unfold.us.us.us:                           ; preds = %37
  call void @llvm.lifetime.end.p0(i64 4, ptr nonnull %8) #10
  %indvars.iv.next99 = add nuw nsw i64 %indvars.iv98, 1
  %exitcond101.not = icmp eq i64 %indvars.iv.next99, %indvars.iv102
  br i1 %exitcond101.not, label %.loopexit.us.us, label %.lr.ph.us.us, !llvm.loop !27

.lr.ph82.split:                                   ; preds = %.lr.ph82, %._crit_edge.split
  %.04980 = phi i32 [ %72, %._crit_edge.split ], [ %1, %.lr.ph82 ]
  call void @llvm.lifetime.start.p0(i64 4, ptr nonnull %6) #10
  %40 = sext i32 %.04980 to i64
  %41 = getelementptr inbounds i32, ptr @OnigUnicodeFolds1, i64 %40
  %42 = load i32, ptr %41, align 4, !tbaa !17
  store i32 %42, ptr %6, align 4, !tbaa !17
  %43 = icmp ult i32 %42, 128
  br i1 %43, label %44, label %.loopexit72.sink.split

44:                                               ; preds = %.lr.ph82.split
  %45 = add nsw i32 %.04980, 1
  %46 = sext i32 %45 to i64
  %47 = getelementptr inbounds [4218 x i32], ptr @OnigUnicodeFolds1, i64 0, i64 %46
  %48 = load i32, ptr %47, align 4, !tbaa !17
  %49 = icmp sgt i32 %48, 0
  br i1 %49, label %.lr.ph77, label %._crit_edge.split

.lr.ph77:                                         ; preds = %44
  %50 = getelementptr inbounds nuw i8, ptr %41, i64 8
  %wide.trip.count96 = zext nneg i32 %48 to i64
  br label %51

51:                                               ; preds = %.lr.ph77, %.loopexit
  %indvars.iv93 = phi i64 [ 0, %.lr.ph77 ], [ %indvars.iv.next94, %.loopexit ]
  call void @llvm.lifetime.start.p0(i64 4, ptr nonnull %7) #10
  %52 = getelementptr inbounds nuw i32, ptr %50, i64 %indvars.iv93
  %53 = load i32, ptr %52, align 4, !tbaa !17
  store i32 %53, ptr %7, align 4, !tbaa !17
  %54 = icmp ult i32 %53, 128
  br i1 %54, label %55, label %.loopexit

55:                                               ; preds = %51
  %56 = load i32, ptr %6, align 4, !tbaa !17
  %57 = call i32 %3(i32 noundef %56, ptr noundef nonnull %7, i32 noundef 1, ptr noundef %4) #10
  %.not = icmp eq i32 %57, 0
  br i1 %.not, label %58, label %.thread64

58:                                               ; preds = %55
  %59 = load i32, ptr %7, align 4, !tbaa !17
  %60 = call i32 %3(i32 noundef %59, ptr noundef nonnull %6, i32 noundef 1, ptr noundef %4) #10
  %.not55 = icmp eq i32 %60, 0
  br i1 %.not55, label %.preheader, label %.thread64

.preheader:                                       ; preds = %58
  %.not85 = icmp eq i64 %indvars.iv93, 0
  br i1 %.not85, label %.loopexit, label %.lr.ph

.lr.ph:                                           ; preds = %.preheader, %select.unfold
  %indvars.iv = phi i64 [ %indvars.iv.next, %select.unfold ], [ 0, %.preheader ]
  call void @llvm.lifetime.start.p0(i64 4, ptr nonnull %8) #10
  %61 = getelementptr inbounds nuw i32, ptr %50, i64 %indvars.iv
  %62 = load i32, ptr %61, align 4, !tbaa !17
  store i32 %62, ptr %8, align 4, !tbaa !17
  %63 = icmp ult i32 %62, 128
  br i1 %63, label %64, label %select.unfold

64:                                               ; preds = %.lr.ph
  %65 = load i32, ptr %7, align 4, !tbaa !17
  %66 = call i32 %3(i32 noundef %65, ptr noundef nonnull %8, i32 noundef 1, ptr noundef %4) #10
  %.not56 = icmp eq i32 %66, 0
  br i1 %.not56, label %67, label %.thread

67:                                               ; preds = %64
  %68 = load i32, ptr %8, align 4, !tbaa !17
  %69 = call i32 %3(i32 noundef %68, ptr noundef nonnull %7, i32 noundef 1, ptr noundef %4) #10
  %.not57 = icmp eq i32 %69, 0
  br i1 %.not57, label %select.unfold, label %.thread

.thread:                                          ; preds = %67, %64, %.lr.ph.us.us, %37
  %.us-phi = phi i32 [ %39, %37 ], [ %36, %.lr.ph.us.us ], [ %69, %67 ], [ %66, %64 ]
  call void @llvm.lifetime.end.p0(i64 4, ptr nonnull %8) #10
  br label %.thread64

select.unfold:                                    ; preds = %67, %.lr.ph
  call void @llvm.lifetime.end.p0(i64 4, ptr nonnull %8) #10
  %indvars.iv.next = add nuw nsw i64 %indvars.iv, 1
  %exitcond.not = icmp eq i64 %indvars.iv.next, %indvars.iv93
  br i1 %exitcond.not, label %.loopexit, label %.lr.ph, !llvm.loop !27

.thread64:                                        ; preds = %55, %58, %25, %30, %.thread
  %.3.ph = phi i32 [ %.us-phi, %.thread ], [ %29, %25 ], [ %32, %30 ], [ %57, %55 ], [ %60, %58 ]
  call void @llvm.lifetime.end.p0(i64 4, ptr nonnull %7) #10
  br label %.loopexit72.sink.split

.loopexit:                                        ; preds = %select.unfold, %.preheader, %51
  call void @llvm.lifetime.end.p0(i64 4, ptr nonnull %7) #10
  %indvars.iv.next94 = add nuw nsw i64 %indvars.iv93, 1
  %exitcond97.not = icmp eq i64 %indvars.iv.next94, %wide.trip.count96
  br i1 %exitcond97.not, label %._crit_edge.split.loopexit, label %51, !llvm.loop !26

._crit_edge.split.loopexit:                       ; preds = %.loopexit
  %.pre = load i32, ptr %47, align 4, !tbaa !17
  br label %._crit_edge.split

._crit_edge.split:                                ; preds = %._crit_edge.split.loopexit, %44
  %70 = phi i32 [ %.pre, %._crit_edge.split.loopexit ], [ %48, %44 ]
  %71 = add nsw i32 %.04980, 2
  %72 = add i32 %71, %70
  call void @llvm.lifetime.end.p0(i64 4, ptr nonnull %6) #10
  %73 = icmp slt i32 %72, %2
  br i1 %73, label %.lr.ph82.split, label %.loopexit72

.loopexit72.sink.split:                           ; preds = %.lr.ph82.split, %.thread64
  %.6.ph = phi i32 [ %.3.ph, %.thread64 ], [ 0, %.lr.ph82.split ]
  call void @llvm.lifetime.end.p0(i64 4, ptr nonnull %6) #10
  br label %.loopexit72

.loopexit72:                                      ; preds = %._crit_edge.split, %._crit_edge.split.us.us, %.loopexit72.sink.split, %5
  %.6 = phi i32 [ 0, %5 ], [ %.6.ph, %.loopexit72.sink.split ], [ 0, %._crit_edge.split.us.us ], [ 0, %._crit_edge.split ]
  ret i32 %.6
}